; Function Attrs: nounwind uwtable
define hidden i32 @HIDAPI_GetJoystickTypeFromGUID(i64 %0, i64 %1) local_unnamed_addr #0 {
  %3 = alloca %struct.SDL_GUID, align 8
  store i64 %0, ptr %3, align 8
  %4 = getelementptr inbounds nuw i8, ptr %3, i64 8
  store i64 %1, ptr %4, align 8
  tail call void @SDL_LockJoysticks_REAL() #9
  %.046 = load ptr, ptr @SDL_HIDAPI_devices, align 8
  %.not7 = icmp eq ptr %.046, null
  br i1 %.not7, label %.loopexit, label %.lr.ph

.lr.ph:                                           ; preds = %2, %11
  %.048 = phi ptr [ %.04, %11 ], [ %.046, %2 ]
  %5 = getelementptr inbounds nuw i8, ptr %.048, i64 48
  %6 = call i32 @SDL_memcmp_REAL(ptr noundef nonnull %3, ptr noundef nonnull %5, i64 noundef 16) #9
  %7 = icmp eq i32 %6, 0
  br i1 %7, label %8, label %11

8:                                                ; preds = %.lr.ph
  %9 = getelementptr inbounds nuw i8, ptr %.048, i64 88
  %10 = load i32, ptr %9, align 8
  br label %.loopexit

11:                                               ; preds = %.lr.ph
  %12 = getelementptr inbounds nuw i8, ptr %.048, i64 184
  %.04 = load ptr, ptr %12, align 8
  %.not = icmp eq ptr %.04, null
  br i1 %.not, label %.loopexit, label %.lr.ph, !llvm.loop !34

.loopexit:                                        ; preds = %11, %2, %8
  %.0 = phi i32 [ %10, %8 ], [ 0, %2 ], [ 0, %11 ]
  call void @SDL_UnlockJoysticks_REAL() #9
  ret i32 %.0
}